; Function Attrs: nounwind uwtable
define i32 @ossl_quic_channel_is_new_local_stream_admissible(ptr noundef %0, i32 noundef %1) local_unnamed_addr #0 {
  %.not.i = icmp eq i32 %1, 0
  %.v.i = select i1 %.not.i, i64 1424, i64 1432
  %3 = getelementptr inbounds nuw i8, ptr %0, i64 %.v.i
  %4 = getelementptr inbounds nuw i8, ptr %0, i64 848
  %5 = load i64, ptr %3, align 8, !tbaa !71
  %6 = tail call i32 @ossl_quic_stream_map_is_local_allowed_by_stream_limit(ptr noundef nonnull %4, i64 noundef %5, i32 noundef %1) #15
  ret i32 %6
}